; Function Attrs: nounwind uwtable
define void @av_bprint_append_data(ptr noundef captures(address) %0, ptr noundef readonly captures(none) %1, i32 noundef %2) local_unnamed_addr #0 {
  %4 = getelementptr inbounds nuw i8, ptr %0, i64 12
  %5 = getelementptr inbounds nuw i8, ptr %0, i64 8
  %6 = load i32, ptr %4, align 4, !tbaa !12
  %7 = load i32, ptr %5, align 8, !tbaa !11
  %8 = tail call i32 @llvm.usub.sat.i32(i32 %6, i32 %7)
  %9 = icmp ult i32 %2, %8
  br i1 %9, label %av_bprint_alloc.exit.thread, label %.lr.ph

.lr.ph:                                           ; preds = %3
  %10 = getelementptr inbounds nuw i8, ptr %0, i64 16
  %11 = getelementptr inbounds nuw i8, ptr %0, i64 20
  br label %12

12:                                               ; preds = %.lr.ph, %av_bprint_alloc.exit
  %13 = phi i32 [ %8, %.lr.ph ], [ %37, %av_bprint_alloc.exit ]
  %14 = phi i32 [ %7, %.lr.ph ], [ %36, %av_bprint_alloc.exit ]
  %15 = phi i32 [ %6, %.lr.ph ], [ %.0.i, %av_bprint_alloc.exit ]
  %16 = load i32, ptr %10, align 8, !tbaa !13
  %17 = icmp ne i32 %15, %16
  %.not.i = icmp ult i32 %14, %15
  %or.cond = and i1 %.not.i, %17
  br i1 %or.cond, label %18, label %av_bprint_alloc.exit.thread

18:                                               ; preds = %12
  %19 = add nuw i32 %14, 1
  %20 = sub nuw i32 -2, %14
  %..i = tail call i32 @llvm.umin.i32(i32 %20, i32 %2)
  %21 = add i32 %19, %..i
  %22 = lshr i32 %16, 1
  %23 = icmp ugt i32 %15, %22
  %24 = shl nuw i32 %15, 1
  %25 = select i1 %23, i32 %16, i32 %24
  %26 = icmp ult i32 %25, %21
  %.44.i = tail call i32 @llvm.umin.i32(i32 %16, i32 %21)
  %.0.i = select i1 %26, i32 %.44.i, i32 %25
  %27 = load ptr, ptr %0, align 8, !tbaa !4
  %.not41.i = icmp eq ptr %27, %11
  %spec.select.i = select i1 %.not41.i, ptr null, ptr %27
  %28 = zext i32 %.0.i to i64
  %29 = tail call ptr @av_realloc(ptr noundef %spec.select.i, i64 noundef %28) #12
  %.not42.i = icmp eq ptr %29, null
  br i1 %.not42.i, label %.av_bprint_alloc.exit.thread.loopexit_crit_edge, label %30

.av_bprint_alloc.exit.thread.loopexit_crit_edge:  ; preds = %18
  %.pre47.pre.pre = load i32, ptr %5, align 8, !tbaa !11
  br label %av_bprint_alloc.exit.thread

30:                                               ; preds = %18
  %.not43.i = icmp eq ptr %spec.select.i, null
  br i1 %.not43.i, label %31, label %av_bprint_alloc.exit

31:                                               ; preds = %30
  %32 = load ptr, ptr %0, align 8, !tbaa !4
  %33 = load i32, ptr %5, align 8, !tbaa !11
  %34 = add i32 %33, 1
  %35 = zext i32 %34 to i64
  tail call void @llvm.memcpy.p0.p0.i64(ptr nonnull align 1 %29, ptr align 1 %32, i64 %35, i1 false)
  br label %av_bprint_alloc.exit

av_bprint_alloc.exit:                             ; preds = %30, %31
  store ptr %29, ptr %0, align 8, !tbaa !4
  store i32 %.0.i, ptr %4, align 4, !tbaa !12
  %36 = load i32, ptr %5, align 8, !tbaa !11
  %37 = tail call i32 @llvm.usub.sat.i32(i32 %.0.i, i32 %36)
  %38 = icmp ult i32 %2, %37
  br i1 %38, label %av_bprint_alloc.exit.thread, label %12

av_bprint_alloc.exit.thread:                      ; preds = %av_bprint_alloc.exit, %12, %.av_bprint_alloc.exit.thread.loopexit_crit_edge, %3
  %.pre47 = phi i32 [ %7, %3 ], [ %.pre47.pre.pre, %.av_bprint_alloc.exit.thread.loopexit_crit_edge ], [ %36, %av_bprint_alloc.exit ], [ %14, %12 ]
  %.lcssa29 = phi i32 [ %6, %3 ], [ %15, %.av_bprint_alloc.exit.thread.loopexit_crit_edge ], [ %.0.i, %av_bprint_alloc.exit ], [ %15, %12 ]
  %.lcssa27 = phi i32 [ %7, %3 ], [ %14, %.av_bprint_alloc.exit.thread.loopexit_crit_edge ], [ %36, %av_bprint_alloc.exit ], [ %14, %12 ]
  %.lcssa = phi i32 [ %8, %3 ], [ %13, %.av_bprint_alloc.exit.thread.loopexit_crit_edge ], [ %37, %av_bprint_alloc.exit ], [ %13, %12 ]
  %.not22.not = icmp ugt i32 %.lcssa29, %.lcssa27
  br i1 %.not22.not, label %39, label %46

39:                                               ; preds = %av_bprint_alloc.exit.thread
  %40 = add i32 %.lcssa, -1
  %41 = tail call i32 @llvm.umin.i32(i32 %2, i32 %40)
  %42 = load ptr, ptr %0, align 8, !tbaa !4
  %43 = zext i32 %.pre47 to i64
  %44 = getelementptr inbounds nuw i8, ptr %42, i64 %43
  %45 = zext i32 %41 to i64
  tail call void @llvm.memcpy.p0.p0.i64(ptr align 1 %44, ptr align 1 %1, i64 %45, i1 false)
  %.pre = load i32, ptr %5, align 8, !tbaa !11
  br label %46

46:                                               ; preds = %39, %av_bprint_alloc.exit.thread
  %47 = phi i32 [ %.pre, %39 ], [ %.pre47, %av_bprint_alloc.exit.thread ]
  %48 = sub i32 -6, %47
  %..i23 = tail call i32 @llvm.umin.i32(i32 %2, i32 %48)
  %49 = add i32 %..i23, %47
  store i32 %49, ptr %5, align 8, !tbaa !11
  %50 = load i32, ptr %4, align 4, !tbaa !12
  %.not.i24 = icmp eq i32 %50, 0
  br i1 %.not.i24, label %av_bprint_grow.exit, label %51

51:                                               ; preds = %46
  %52 = load ptr, ptr %0, align 8, !tbaa !4
  %53 = add i32 %50, -1
  %.15.i = tail call i32 @llvm.umin.i32(i32 %49, i32 %53)
  %54 = zext i32 %.15.i to i64
  %55 = getelementptr inbounds nuw i8, ptr %52, i64 %54
  store i8 0, ptr %55, align 1, !tbaa !14
  br label %av_bprint_grow.exit

av_bprint_grow.exit:                              ; preds = %46, %51
  ret void
}